; Function Attrs: nounwind uwtable
define hidden noalias noundef ptr @SDL_IOFromFP(ptr noundef %0, i1 noundef zeroext %1) local_unnamed_addr #0 {
  %3 = alloca %struct.stat, align 8
  %4 = tail call noalias dereferenceable_or_null(16) ptr @SDL_calloc_REAL(i64 noundef 1, i64 noundef 16) #17
  %.not = icmp eq ptr %4, null
  br i1 %.not, label %5, label %8

5:                                                ; preds = %2
  br i1 %1, label %6, label %41

6:                                                ; preds = %5
  %7 = tail call i32 @fclose(ptr noundef %0)
  br label %41

8:                                                ; preds = %2
  %9 = zext i1 %1 to i8
  store ptr %0, ptr %4, align 8
  %10 = getelementptr inbounds nuw i8, ptr %4, i64 8
  store i8 %9, ptr %10, align 8
  call void @llvm.lifetime.start.p0(i64 144, ptr nonnull %3) #18
  %11 = tail call i32 @fileno(ptr noundef %0) #18
  %12 = call i32 @fstat(i32 noundef %11, ptr noundef nonnull %3) #18
  %13 = icmp eq i32 %12, 0
  %14 = getelementptr inbounds nuw i8, ptr %3, i64 24
  %15 = load i32, ptr %14, align 8
  %16 = and i32 %15, 61440
  %17 = icmp eq i32 %16, 32768
  %18 = select i1 %13, i1 %17, i1 false
  %19 = getelementptr inbounds nuw i8, ptr %4, i64 9
  %20 = zext i1 %18 to i8
  store i8 %20, ptr %19, align 1
  %21 = tail call noalias dereferenceable_or_null(72) ptr @SDL_calloc_REAL(i64 noundef 1, i64 noundef 72) #17
  %.not11.i = icmp eq ptr %21, null
  br i1 %.not11.i, label %22, label %30

22:                                               ; preds = %8
  br i1 %1, label %23, label %stdio_close.exit

23:                                               ; preds = %22
  %24 = tail call i32 @fclose(ptr noundef %0)
  %.not.i = icmp eq i32 %24, 0
  br i1 %.not.i, label %stdio_close.exit, label %25

25:                                               ; preds = %23
  %26 = tail call ptr @__errno_location() #19
  %27 = load i32, ptr %26, align 4
  %28 = tail call ptr @strerror(i32 noundef %27) #18
  %29 = tail call zeroext i1 (ptr, ...) @SDL_SetError_REAL(ptr noundef nonnull @.str.24, ptr noundef %28) #18
  br label %stdio_close.exit

stdio_close.exit:                                 ; preds = %22, %23, %25
  tail call void @SDL_free_REAL(ptr noundef nonnull %4) #18
  br label %40

30:                                               ; preds = %8
  store i32 56, ptr %21, align 8
  %.sroa.6.0..sroa_idx = getelementptr inbounds nuw i8, ptr %21, i64 4
  tail call void @llvm.memset.p0.i64(ptr noundef nonnull align 4 dereferenceable(12) %.sroa.6.0..sroa_idx, i8 0, i64 12, i1 false)
  %.sroa.625.0..sroa_idx = getelementptr inbounds nuw i8, ptr %21, i64 16
  store ptr @stdio_seek, ptr %.sroa.625.0..sroa_idx, align 8
  %.sroa.7.0..sroa_idx = getelementptr inbounds nuw i8, ptr %21, i64 24
  store ptr @stdio_read, ptr %.sroa.7.0..sroa_idx, align 8
  %.sroa.8.0..sroa_idx = getelementptr inbounds nuw i8, ptr %21, i64 32
  store ptr @stdio_write, ptr %.sroa.8.0..sroa_idx, align 8
  %.sroa.9.0..sroa_idx = getelementptr inbounds nuw i8, ptr %21, i64 40
  store ptr @stdio_flush, ptr %.sroa.9.0..sroa_idx, align 8
  %.sroa.10.0..sroa_idx = getelementptr inbounds nuw i8, ptr %21, i64 48
  store ptr @stdio_close, ptr %.sroa.10.0..sroa_idx, align 8
  %31 = getelementptr inbounds nuw i8, ptr %21, i64 56
  store ptr %4, ptr %31, align 8
  %32 = getelementptr inbounds nuw i8, ptr %21, i64 68
  %33 = load i32, ptr %32, align 4
  %34 = icmp eq i32 %33, 0
  br i1 %34, label %SDL_GetIOProperties_REAL.exit, label %SDL_GetIOProperties_REAL.exit.thread

SDL_GetIOProperties_REAL.exit:                    ; preds = %30
  %35 = tail call i32 @SDL_CreateProperties_REAL() #18
  store i32 %35, ptr %32, align 4
  %.not23 = icmp eq i32 %35, 0
  br i1 %.not23, label %40, label %SDL_GetIOProperties_REAL.exit.thread

SDL_GetIOProperties_REAL.exit.thread:             ; preds = %30, %SDL_GetIOProperties_REAL.exit
  %.0.i2433 = phi i32 [ %35, %SDL_GetIOProperties_REAL.exit ], [ %33, %30 ]
  %36 = tail call zeroext i1 @SDL_SetPointerProperty_REAL(i32 noundef %.0.i2433, ptr noundef nonnull @.str.1, ptr noundef %0) #18
  %37 = tail call i32 @fileno(ptr noundef %0) #18
  %38 = sext i32 %37 to i64
  %39 = tail call zeroext i1 @SDL_SetNumberProperty_REAL(i32 noundef %.0.i2433, ptr noundef nonnull @.str, i64 noundef %38) #18
  br label %40

40:                                               ; preds = %SDL_GetIOProperties_REAL.exit, %SDL_GetIOProperties_REAL.exit.thread, %stdio_close.exit
  call void @llvm.lifetime.end.p0(i64 144, ptr nonnull %3) #18
  br label %41

41:                                               ; preds = %5, %6, %40
  %.0 = phi ptr [ %21, %40 ], [ null, %6 ], [ null, %5 ]
  ret ptr %.0
}